target datalayout = "e-m:e-p270:32:32-p271:32:32-p272:64:64-i64:64-i128:128-f80:128-n8:16:32:64-S128"
target triple = "x86_64-pc-linux-gnu"

%struct.nameData = type { [64 x i8] }
%struct.ReplicationSlot = type { i8, i8, i32, i8, i8, i32, i32, %struct.ReplicationSlotPersistentData, %struct.LWLock, %struct.ConditionVariable, i32, i64, i64, i64, i64, i64 }
%struct.ReplicationSlotPersistentData = type { %struct.nameData, i32, i32, i32, i32, i64, i32, i64, i64, i8, %struct.nameData, i8, i8 }
%struct.LWLock = type { i16, %struct.pg_atomic_uint32, %struct.proclist_head }
%struct.pg_atomic_uint32 = type { i32 }
%struct.proclist_head = type { i32, i32 }
%struct.ConditionVariable = type { i8, %struct.proclist_head }
%struct.LogicalDecodingContext = type { ptr, ptr, ptr, ptr, ptr, i8, %struct.OutputPluginCallbacks, %struct.OutputPluginOptions, ptr, ptr, ptr, ptr, ptr, ptr, ptr, i8, i8, i8, i8, i8, i64, i32, i8, i8 }
%struct.OutputPluginCallbacks = type { ptr, ptr, ptr, ptr, ptr, ptr, ptr, ptr, ptr, ptr, ptr, ptr, ptr, ptr, ptr, ptr, ptr, ptr, ptr, ptr, ptr }
%struct.OutputPluginOptions = type { i32, i8 }
%struct.LogicalErrorCallbackState = type { ptr, ptr, i64 }
%struct.ErrorContextCallback = type { ptr, ptr, ptr }
%struct.XLogReaderState = type { %struct.XLogReaderRoutine, i64, ptr, i64, i64, i64, i64, i64, i64, i64, i64, ptr, ptr, i64, i8, ptr, ptr, ptr, ptr, ptr, i32, %struct.WALSegmentContext, %struct.WALOpenSegment, i32, i64, i32, i64, i32, i64, i32, ptr, i32, ptr, i8, i8 }
%struct.XLogReaderRoutine = type { ptr, ptr, ptr }
%struct.WALSegmentContext = type { [1024 x i8], i32 }
%struct.WALOpenSegment = type { i32, i64, i32 }
%struct.__jmp_buf_tag = type { [8 x i64], i32, %struct.__sigset_t }
%struct.__sigset_t = type { [16 x i64] }

@.str.1 = private unnamed_addr constant [10 x i8] c"logical.c\00", align 1
@MyReplicationSlot = external global ptr, align 8
@InterruptPending = external global i32, align 4
@error_context_stack = external global ptr, align 8
@PG_exception_stack = external global ptr, align 8
@CurrentResourceOwner = external global ptr, align 8
@.str.28 = private unnamed_addr constant [59 x i8] c"could not find record while advancing replication slot: %s\00", align 1
@__func__.LogicalSlotAdvanceAndCheckSnapState = private unnamed_addr constant [36 x i8] c"LogicalSlotAdvanceAndCheckSnapState\00", align 1
@.str.69 = private unnamed_addr constant [9 x i8] c"shutdown\00", align 1

; Function Attrs: nounwind uwtable
define internal void @shutdown_cb_wrapper(ptr noundef %0) #0 {
  %2 = alloca ptr, align 8
  %3 = alloca %struct.LogicalErrorCallbackState, align 8
  %4 = alloca %struct.ErrorContextCallback, align 8
  store ptr %0, ptr %2, align 8
  call void @llvm.lifetime.start.p0(i64 24, ptr %3) #10
  call void @llvm.lifetime.start.p0(i64 24, ptr %4) #10
  %5 = load ptr, ptr %2, align 8
  %6 = getelementptr inbounds nuw %struct.LogicalErrorCallbackState, ptr %3, i32 0, i32 0
  store ptr %5, ptr %6, align 8
  %7 = getelementptr inbounds nuw %struct.LogicalErrorCallbackState, ptr %3, i32 0, i32 1
  store ptr @.str.69, ptr %7, align 8
  %8 = getelementptr inbounds nuw %struct.LogicalErrorCallbackState, ptr %3, i32 0, i32 2
  store i64 0, ptr %8, align 8
  %9 = getelementptr inbounds nuw %struct.ErrorContextCallback, ptr %4, i32 0, i32 1
  store ptr @output_plugin_error_callback, ptr %9, align 8
  %10 = getelementptr inbounds nuw %struct.ErrorContextCallback, ptr %4, i32 0, i32 2
  store ptr %3, ptr %10, align 8
  %11 = load ptr, ptr @error_context_stack, align 8
  %12 = getelementptr inbounds nuw %struct.ErrorContextCallback, ptr %4, i32 0, i32 0
  store ptr %11, ptr %12, align 8
  store ptr %4, ptr @error_context_stack, align 8
  %13 = load ptr, ptr %2, align 8
  %14 = getelementptr inbounds nuw %struct.LogicalDecodingContext, ptr %13, i32 0, i32 18
  store i8 0, ptr %14, align 1
  %15 = load ptr, ptr %2, align 8
  %16 = getelementptr inbounds nuw %struct.LogicalDecodingContext, ptr %15, i32 0, i32 22
  store i8 0, ptr %16, align 4
  %17 = load ptr, ptr %2, align 8
  %18 = getelementptr inbounds nuw %struct.LogicalDecodingContext, ptr %17, i32 0, i32 6
  %19 = getelementptr inbounds nuw %struct.OutputPluginCallbacks, ptr %18, i32 0, i32 7
  %20 = load ptr, ptr %19, align 8
  %21 = load ptr, ptr %2, align 8
  call void %20(ptr noundef %21)
  %22 = getelementptr inbounds nuw %struct.ErrorContextCallback, ptr %4, i32 0, i32 0
  %23 = load ptr, ptr %22, align 8
  store ptr %23, ptr @error_context_stack, align 8
  call void @llvm.lifetime.end.p0(i64 24, ptr %4) #10
  call void @llvm.lifetime.end.p0(i64 24, ptr %3) #10
  ret void
}

; Function Attrs: nounwind uwtable
define dso_local void @FreeDecodingContext(ptr noundef %0) #0 {
  %2 = alloca ptr, align 8
  store ptr %0, ptr %2, align 8
  %3 = load ptr, ptr %2, align 8
  %4 = getelementptr inbounds nuw %struct.LogicalDecodingContext, ptr %3, i32 0, i32 6
  %5 = getelementptr inbounds nuw %struct.OutputPluginCallbacks, ptr %4, i32 0, i32 7
  %6 = load ptr, ptr %5, align 8
  %7 = icmp ne ptr %6, null
  br i1 %7, label %8, label %10

8:                                                ; preds = %1
  %9 = load ptr, ptr %2, align 8
  call void @shutdown_cb_wrapper(ptr noundef %9)
  br label %10

10:                                               ; preds = %8, %1
  %11 = load ptr, ptr %2, align 8
  %12 = getelementptr inbounds nuw %struct.LogicalDecodingContext, ptr %11, i32 0, i32 3
  %13 = load ptr, ptr %12, align 8
  call void @ReorderBufferFree(ptr noundef %13)
  %14 = load ptr, ptr %2, align 8
  %15 = getelementptr inbounds nuw %struct.LogicalDecodingContext, ptr %14, i32 0, i32 4
  %16 = load ptr, ptr %15, align 8
  call void @FreeSnapshotBuilder(ptr noundef %16)
  %17 = load ptr, ptr %2, align 8
  %18 = getelementptr inbounds nuw %struct.LogicalDecodingContext, ptr %17, i32 0, i32 2
  %19 = load ptr, ptr %18, align 8
  call void @XLogReaderFree(ptr noundef %19)
  %20 = load ptr, ptr %2, align 8
  %21 = getelementptr inbounds nuw %struct.LogicalDecodingContext, ptr %20, i32 0, i32 0
  %22 = load ptr, ptr %21, align 8
  call void @MemoryContextDelete(ptr noundef %22)
  ret void
}

; Function Attrs: nounwind uwtable
define dso_local zeroext i1 @DecodingContextReady(ptr noundef %0) #0 {
  %2 = alloca ptr, align 8
  store ptr %0, ptr %2, align 8
  %3 = load ptr, ptr %2, align 8
  %4 = getelementptr inbounds nuw %struct.LogicalDecodingContext, ptr %3, i32 0, i32 4
  %5 = load ptr, ptr %4, align 8
  %6 = call i32 @SnapBuildCurrentState(ptr noundef %5)
  %7 = icmp eq i32 %6, 2
  ret i1 %7
}

; Function Attrs: nounwind uwtable
define dso_local i64 @LogicalSlotAdvanceAndCheckSnapState(i64 noundef %0, ptr noundef %1) #0 {
  %3 = alloca i64, align 8
  %4 = alloca ptr, align 8
  %5 = alloca ptr, align 8
  %6 = alloca ptr, align 8
  %7 = alloca i64, align 8
  %8 = alloca ptr, align 8
  %9 = alloca ptr, align 8
  %10 = alloca [1 x %struct.__jmp_buf_tag], align 16
  %11 = alloca i8, align 1
  %12 = alloca %struct.XLogReaderRoutine, align 8
  %13 = alloca ptr, align 8
  %14 = alloca ptr, align 8
  store i64 %0, ptr %3, align 8
  store ptr %1, ptr %4, align 8
  call void @llvm.lifetime.start.p0(i64 8, ptr %5) #10
  call void @llvm.lifetime.start.p0(i64 8, ptr %6) #10
  %15 = load ptr, ptr @CurrentResourceOwner, align 8
  store ptr %15, ptr %6, align 8
  call void @llvm.lifetime.start.p0(i64 8, ptr %7) #10
  %16 = load ptr, ptr %4, align 8
  %17 = icmp ne ptr %16, null
  br i1 %17, label %18, label %20

18:                                               ; preds = %2
  %19 = load ptr, ptr %4, align 8
  store i8 0, ptr %19, align 1
  br label %20

20:                                               ; preds = %18, %2
  br label %21

21:                                               ; preds = %20
  call void @llvm.lifetime.start.p0(i64 8, ptr %8) #10
  %22 = load ptr, ptr @PG_exception_stack, align 8
  store ptr %22, ptr %8, align 8
  call void @llvm.lifetime.start.p0(i64 8, ptr %9) #10
  %23 = load ptr, ptr @error_context_stack, align 8
  store ptr %23, ptr %9, align 8
  call void @llvm.lifetime.start.p0(i64 200, ptr %10) #10
  call void @llvm.lifetime.start.p0(i64 1, ptr %11) #10
  store i8 0, ptr %11, align 1
  %24 = getelementptr inbounds [1 x %struct.__jmp_buf_tag], ptr %10, i64 0, i64 0
  %25 = call i32 @__sigsetjmp(ptr noundef %24, i32 noundef 0) #11
  %26 = icmp eq i32 %25, 0
  br i1 %26, label %27, label %111

27:                                               ; preds = %21
  store ptr %10, ptr @PG_exception_stack, align 8
  %28 = getelementptr inbounds nuw %struct.XLogReaderRoutine, ptr %12, i32 0, i32 0
  store ptr @read_local_xlog_page, ptr %28, align 8
  %29 = getelementptr inbounds nuw %struct.XLogReaderRoutine, ptr %12, i32 0, i32 1
  store ptr @wal_segment_open, ptr %29, align 8
  %30 = getelementptr inbounds nuw %struct.XLogReaderRoutine, ptr %12, i32 0, i32 2
  store ptr @wal_segment_close, ptr %30, align 8
  %31 = call ptr @CreateDecodingContext(i64 noundef 0, ptr noundef null, i1 noundef zeroext true, ptr noundef %12, ptr noundef null, ptr noundef null, ptr noundef null)
  store ptr %31, ptr %5, align 8
  %32 = load i64, ptr %3, align 8
  call void @WaitForStandbyConfirmation(i64 noundef %32)
  %33 = load ptr, ptr %5, align 8
  %34 = getelementptr inbounds nuw %struct.LogicalDecodingContext, ptr %33, i32 0, i32 2
  %35 = load ptr, ptr %34, align 8
  %36 = load ptr, ptr @MyReplicationSlot, align 8
  %37 = getelementptr inbounds nuw %struct.ReplicationSlot, ptr %36, i32 0, i32 7
  %38 = getelementptr inbounds nuw %struct.ReplicationSlotPersistentData, ptr %37, i32 0, i32 5
  %39 = load i64, ptr %38, align 8
  call void @XLogBeginRead(ptr noundef %35, i64 noundef %39)
  call void @InvalidateSystemCaches()
  br label %40

40:                                               ; preds = %86, %27
  %41 = load ptr, ptr %5, align 8
  %42 = getelementptr inbounds nuw %struct.LogicalDecodingContext, ptr %41, i32 0, i32 2
  %43 = load ptr, ptr %42, align 8
  %44 = getelementptr inbounds nuw %struct.XLogReaderState, ptr %43, i32 0, i32 4
  %45 = load i64, ptr %44, align 8
  %46 = load i64, ptr %3, align 8
  %47 = icmp ult i64 %45, %46
  br i1 %47, label %48, label %87

48:                                               ; preds = %40
  call void @llvm.lifetime.start.p0(i64 8, ptr %13) #10
  store ptr null, ptr %13, align 8
  call void @llvm.lifetime.start.p0(i64 8, ptr %14) #10
  %49 = load ptr, ptr %5, align 8
  %50 = getelementptr inbounds nuw %struct.LogicalDecodingContext, ptr %49, i32 0, i32 2
  %51 = load ptr, ptr %50, align 8
  %52 = call ptr @XLogReadRecord(ptr noundef %51, ptr noundef %13)
  store ptr %52, ptr %14, align 8
  %53 = load ptr, ptr %13, align 8
  %54 = icmp ne ptr %53, null
  br i1 %54, label %55, label %67

55:                                               ; preds = %48
  br label %56

56:                                               ; preds = %55
  br i1 true, label %57, label %59

57:                                               ; preds = %56
  %58 = call zeroext i1 @errstart_cold(i32 noundef 21, ptr noundef null) #9
  br i1 %58, label %61, label %64

59:                                               ; preds = %56
  %60 = call zeroext i1 @errstart(i32 noundef 21, ptr noundef null)
  br i1 %60, label %61, label %64

61:                                               ; preds = %59, %57
  %62 = load ptr, ptr %13, align 8
  %63 = call i32 (ptr, ...) @errmsg_internal(ptr noundef @.str.28, ptr noundef %62)
  call void @errfinish(ptr noundef @.str.1, i32 noundef 2099, ptr noundef @__func__.LogicalSlotAdvanceAndCheckSnapState)
  br label %64

64:                                               ; preds = %61, %59, %57
  unreachable

65:                                               ; No predecessors!
  br label %66

66:                                               ; preds = %65
  br label %67

67:                                               ; preds = %66, %48
  %68 = load ptr, ptr %14, align 8
  %69 = icmp ne ptr %68, null
  br i1 %69, label %70, label %75

70:                                               ; preds = %67
  %71 = load ptr, ptr %5, align 8
  %72 = load ptr, ptr %5, align 8
  %73 = getelementptr inbounds nuw %struct.LogicalDecodingContext, ptr %72, i32 0, i32 2
  %74 = load ptr, ptr %73, align 8
  call void @LogicalDecodingProcessRecord(ptr noundef %71, ptr noundef %74)
  br label %75

75:                                               ; preds = %70, %67
  br label %76

76:                                               ; preds = %75
  %77 = load volatile i32, ptr @InterruptPending, align 4
  %78 = icmp ne i32 %77, 0
  %79 = zext i1 %78 to i32
  %80 = sext i32 %79 to i64
  %81 = call i64 @llvm.expect.i64(i64 %80, i64 0)
  %82 = icmp ne i64 %81, 0
  br i1 %82, label %83, label %84

83:                                               ; preds = %76
  call void @ProcessInterrupts()
  br label %84

84:                                               ; preds = %83, %76
  br label %85

85:                                               ; preds = %84
  br label %86

86:                                               ; preds = %85
  call void @llvm.lifetime.end.p0(i64 8, ptr %14) #10
  call void @llvm.lifetime.end.p0(i64 8, ptr %13) #10
  br label %40, !llvm.loop !22

87:                                               ; preds = %40
  %88 = load ptr, ptr %4, align 8
  %89 = icmp ne ptr %88, null
  br i1 %89, label %90, label %95

90:                                               ; preds = %87
  %91 = load ptr, ptr %5, align 8
  %92 = call zeroext i1 @DecodingContextReady(ptr noundef %91)
  br i1 %92, label %93, label %95

93:                                               ; preds = %90
  %94 = load ptr, ptr %4, align 8
  store i8 1, ptr %94, align 1
  br label %95

95:                                               ; preds = %93, %90, %87
  %96 = load ptr, ptr %6, align 8
  store ptr %96, ptr @CurrentResourceOwner, align 8
  %97 = load ptr, ptr %5, align 8
  %98 = getelementptr inbounds nuw %struct.LogicalDecodingContext, ptr %97, i32 0, i32 2
  %99 = load ptr, ptr %98, align 8
  %100 = getelementptr inbounds nuw %struct.XLogReaderState, ptr %99, i32 0, i32 4
  %101 = load i64, ptr %100, align 8
  %102 = icmp ne i64 %101, 0
  br i1 %102, label %103, label %105

103:                                              ; preds = %95
  %104 = load i64, ptr %3, align 8
  call void @LogicalConfirmReceivedLocation(i64 noundef %104)
  call void @ReplicationSlotMarkDirty()
  br label %105

105:                                              ; preds = %103, %95
  %106 = load ptr, ptr @MyReplicationSlot, align 8
  %107 = getelementptr inbounds nuw %struct.ReplicationSlot, ptr %106, i32 0, i32 7
  %108 = getelementptr inbounds nuw %struct.ReplicationSlotPersistentData, ptr %107, i32 0, i32 7
  %109 = load i64, ptr %108, align 8
  store i64 %109, ptr %7, align 8
  %110 = load ptr, ptr %5, align 8
  call void @FreeDecodingContext(ptr noundef %110)
  call void @InvalidateSystemCaches()
  br label %114

111:                                              ; preds = %21
  %112 = load ptr, ptr %8, align 8
  store ptr %112, ptr @PG_exception_stack, align 8
  %113 = load ptr, ptr %9, align 8
  store ptr %113, ptr @error_context_stack, align 8
  call void @InvalidateSystemCaches()
  call void @pg_re_throw() #12
  unreachable

114:                                              ; preds = %105
  %115 = load i8, ptr %11, align 1, !range !6, !noundef !7
  %116 = trunc i8 %115 to i1
  br i1 %116, label %117, label %118

117:                                              ; preds = %114
  call void @pg_re_throw() #12
  unreachable

118:                                              ; preds = %114
  %119 = load ptr, ptr %8, align 8
  store ptr %119, ptr @PG_exception_stack, align 8
  %120 = load ptr, ptr %9, align 8
  store ptr %120, ptr @error_context_stack, align 8
  call void @llvm.lifetime.end.p0(i64 1, ptr %11) #10
  call void @llvm.lifetime.end.p0(i64 200, ptr %10) #10
  call void @llvm.lifetime.end.p0(i64 8, ptr %9) #10
  call void @llvm.lifetime.end.p0(i64 8, ptr %8) #10
  br label %121

121:                                              ; preds = %118
  br label %122

122:                                              ; preds = %121
  %123 = load i64, ptr %7, align 8
  call void @llvm.lifetime.end.p0(i64 8, ptr %7) #10
  call void @llvm.lifetime.end.p0(i64 8, ptr %6) #10
  call void @llvm.lifetime.end.p0(i64 8, ptr %5) #10
  ret i64 %123
}