; Function Attrs: nounwind uwtable
define dso_local i64 @LogicalSlotAdvanceAndCheckSnapState(i64 noundef %0, ptr noundef writeonly captures(address_is_null) %1) local_unnamed_addr #0 {
  %3 = alloca %struct.LogicalErrorCallbackState, align 8
  %4 = alloca %struct.ErrorContextCallback, align 8
  %5 = alloca [1 x %struct.__jmp_buf_tag], align 16
  %6 = alloca %struct.XLogReaderRoutine, align 8
  %7 = alloca ptr, align 8
  %8 = load ptr, ptr @CurrentResourceOwner, align 8
  %.not = icmp eq ptr %1, null
  br i1 %.not, label %10, label %9

9:                                                ; preds = %2
  store i8 0, ptr %1, align 1
  br label %10

10:                                               ; preds = %2, %9
  %11 = load ptr, ptr @PG_exception_stack, align 8
  %12 = load ptr, ptr @error_context_stack, align 8
  call void @llvm.lifetime.start.p0(i64 200, ptr nonnull %5) #10
  %13 = call i32 @__sigsetjmp(ptr noundef nonnull %5, i32 noundef 0) #12
  %14 = icmp eq i32 %13, 0
  br i1 %14, label %15, label %78

15:                                               ; preds = %10
  store ptr %5, ptr @PG_exception_stack, align 8
  store ptr @read_local_xlog_page, ptr %6, align 8
  %16 = getelementptr inbounds nuw i8, ptr %6, i64 8
  store ptr @wal_segment_open, ptr %16, align 8
  %17 = getelementptr inbounds nuw i8, ptr %6, i64 16
  store ptr @wal_segment_close, ptr %17, align 8
  %18 = call ptr @CreateDecodingContext(i64 noundef 0, ptr noundef null, i1 noundef zeroext true, ptr noundef nonnull %6, ptr noundef null, ptr noundef null, ptr noundef null)
  call void @WaitForStandbyConfirmation(i64 noundef %0) #10
  %19 = getelementptr inbounds nuw i8, ptr %18, i64 16
  %20 = load ptr, ptr %19, align 8
  %21 = load ptr, ptr @MyReplicationSlot, align 8
  %22 = getelementptr inbounds nuw i8, ptr %21, i64 104
  %23 = load i64, ptr %22, align 8
  call void @XLogBeginRead(ptr noundef %20, i64 noundef %23) #10
  call void @InvalidateSystemCaches() #10
  %24 = load ptr, ptr %19, align 8
  %25 = getelementptr inbounds nuw i8, ptr %24, i64 48
  %26 = load i64, ptr %25, align 8
  %27 = icmp ult i64 %26, %0
  br i1 %27, label %.lr.ph, label %._crit_edge

.lr.ph:                                           ; preds = %15, %41
  %28 = phi ptr [ %42, %41 ], [ %24, %15 ]
  call void @llvm.lifetime.start.p0(i64 8, ptr nonnull %7) #10
  store ptr null, ptr %7, align 8
  %29 = call ptr @XLogReadRecord(ptr noundef nonnull %28, ptr noundef nonnull %7) #10
  %30 = load ptr, ptr %7, align 8
  %.not24 = icmp eq ptr %30, null
  br i1 %.not24, label %35, label %31

31:                                               ; preds = %.lr.ph
  %32 = call zeroext i1 @errstart_cold(i32 noundef 21, ptr noundef null) #11
  call void @llvm.assume(i1 %32)
  %33 = load ptr, ptr %7, align 8
  %34 = call i32 (ptr, ...) @errmsg_internal(ptr noundef nonnull @.str.28, ptr noundef %33) #10
  call void @errfinish(ptr noundef nonnull @.str.1, i32 noundef 2099, ptr noundef nonnull @__func__.LogicalSlotAdvanceAndCheckSnapState) #10
  unreachable

35:                                               ; preds = %.lr.ph
  %.not25 = icmp eq ptr %29, null
  br i1 %.not25, label %38, label %36

36:                                               ; preds = %35
  %37 = load ptr, ptr %19, align 8
  call void @LogicalDecodingProcessRecord(ptr noundef nonnull %18, ptr noundef %37) #10
  br label %38

38:                                               ; preds = %35, %36
  %39 = load volatile i32, ptr @InterruptPending, align 4
  %.not26 = icmp eq i32 %39, 0
  br i1 %.not26, label %41, label %40, !prof !11

40:                                               ; preds = %38
  call void @ProcessInterrupts() #10
  br label %41

41:                                               ; preds = %40, %38
  call void @llvm.lifetime.end.p0(i64 8, ptr nonnull %7) #10
  %42 = load ptr, ptr %19, align 8
  %43 = getelementptr inbounds nuw i8, ptr %42, i64 48
  %44 = load i64, ptr %43, align 8
  %45 = icmp ult i64 %44, %0
  br i1 %45, label %.lr.ph, label %._crit_edge, !llvm.loop !23

._crit_edge:                                      ; preds = %41, %15
  br i1 %.not, label %52, label %46

46:                                               ; preds = %._crit_edge
  %47 = getelementptr inbounds nuw i8, ptr %18, i64 32
  %48 = load ptr, ptr %47, align 8
  %49 = call i32 @SnapBuildCurrentState(ptr noundef %48) #10
  %50 = icmp eq i32 %49, 2
  br i1 %50, label %51, label %52

51:                                               ; preds = %46
  store i8 1, ptr %1, align 1
  br label %52

52:                                               ; preds = %51, %46, %._crit_edge
  store ptr %8, ptr @CurrentResourceOwner, align 8
  %53 = load ptr, ptr %19, align 8
  %54 = getelementptr inbounds nuw i8, ptr %53, i64 48
  %55 = load i64, ptr %54, align 8
  %.not23 = icmp eq i64 %55, 0
  br i1 %.not23, label %57, label %56

56:                                               ; preds = %52
  call void @LogicalConfirmReceivedLocation(i64 noundef %0)
  call void @ReplicationSlotMarkDirty() #10
  br label %57

57:                                               ; preds = %56, %52
  %58 = load ptr, ptr @MyReplicationSlot, align 8
  %59 = getelementptr inbounds nuw i8, ptr %58, i64 120
  %60 = load i64, ptr %59, align 8
  %61 = getelementptr inbounds nuw i8, ptr %18, i64 104
  %62 = load ptr, ptr %61, align 8
  %.not.i = icmp eq ptr %62, null
  br i1 %.not.i, label %FreeDecodingContext.exit, label %63

63:                                               ; preds = %57
  call void @llvm.lifetime.start.p0(i64 24, ptr nonnull %3) #10
  call void @llvm.lifetime.start.p0(i64 24, ptr nonnull %4) #10
  store ptr %18, ptr %3, align 8
  %64 = getelementptr inbounds nuw i8, ptr %3, i64 8
  store ptr @.str.69, ptr %64, align 8
  %65 = getelementptr inbounds nuw i8, ptr %3, i64 16
  store i64 0, ptr %65, align 8
  %66 = getelementptr inbounds nuw i8, ptr %4, i64 8
  store ptr @output_plugin_error_callback, ptr %66, align 8
  %67 = getelementptr inbounds nuw i8, ptr %4, i64 16
  store ptr %3, ptr %67, align 8
  %68 = load ptr, ptr @error_context_stack, align 8
  store ptr %68, ptr %4, align 8
  store ptr %4, ptr @error_context_stack, align 8
  %69 = getelementptr inbounds nuw i8, ptr %18, i64 283
  store i8 0, ptr %69, align 1
  %70 = getelementptr inbounds nuw i8, ptr %18, i64 300
  store i8 0, ptr %70, align 4
  call void %62(ptr noundef nonnull %18) #10
  %71 = load ptr, ptr %4, align 8
  store ptr %71, ptr @error_context_stack, align 8
  call void @llvm.lifetime.end.p0(i64 24, ptr nonnull %4) #10
  call void @llvm.lifetime.end.p0(i64 24, ptr nonnull %3) #10
  br label %FreeDecodingContext.exit

FreeDecodingContext.exit:                         ; preds = %57, %63
  %72 = getelementptr inbounds nuw i8, ptr %18, i64 24
  %73 = load ptr, ptr %72, align 8
  call void @ReorderBufferFree(ptr noundef %73) #10
  %74 = getelementptr inbounds nuw i8, ptr %18, i64 32
  %75 = load ptr, ptr %74, align 8
  call void @FreeSnapshotBuilder(ptr noundef %75) #10
  %76 = load ptr, ptr %19, align 8
  call void @XLogReaderFree(ptr noundef %76) #10
  %77 = load ptr, ptr %18, align 8
  call void @MemoryContextDelete(ptr noundef %77) #10
  call void @InvalidateSystemCaches() #10
  store ptr %11, ptr @PG_exception_stack, align 8
  store ptr %12, ptr @error_context_stack, align 8
  call void @llvm.lifetime.end.p0(i64 200, ptr nonnull %5) #10
  ret i64 %60

78:                                               ; preds = %10
  store ptr %11, ptr @PG_exception_stack, align 8
  store ptr %12, ptr @error_context_stack, align 8
  call void @InvalidateSystemCaches() #10
  call void @pg_re_throw() #13
  unreachable
}